target datalayout = "e-m:e-p270:32:32-p271:32:32-p272:64:64-i64:64-i128:128-f80:128-n8:16:32:64-S128"
target triple = "x86_64-pc-linux-gnu"

%struct.expert_field = type { i32, i32 }
%struct.ansi_a_shared_data_t = type { ptr, ptr, ptr, i8, i8, %struct._address, i32, %struct.e_in6_addr, i16, i8 }
%struct._address = type { i32, i32, ptr, ptr }
%struct.e_in6_addr = type { [16 x i8] }

@.str.275 = private unnamed_addr constant [9 x i8] c"Reserved\00", align 1
@ei_ansi_a_extraneous_data = internal global %struct.expert_field zeroinitializer, align 4
@hf_ansi_a_reserved_bits_8_f0 = internal global i32 0, align 4
@hf_ansi_a_auth_chlg_param_rand_num_type = internal global i32 0, align 4
@hf_ansi_a_auth_chlg_param_rand = internal global i32 0, align 4
@.str.1006 = private unnamed_addr constant [8 x i8] c" - (%s)\00", align 1
@.str.1008 = private unnamed_addr constant [8 x i8] c"%s (%u)\00", align 1

; Function Attrs: null_pointer_is_valid sspstrong uwtable
define internal zeroext i8 @elem_auth_chlg_param(ptr noundef %0, ptr noundef %1, ptr noundef %2, i32 noundef %3, i32 noundef %4, ptr noundef %5) #1 {
  %7 = alloca ptr, align 8
  %8 = alloca ptr, align 8
  %9 = alloca ptr, align 8
  %10 = alloca i32, align 4
  %11 = alloca i32, align 4
  %12 = alloca ptr, align 8
  %13 = alloca i8, align 1
  %14 = alloca i32, align 4
  %15 = alloca ptr, align 8
  store ptr %0, ptr %7, align 8
  store ptr %1, ptr %8, align 8
  store ptr %2, ptr %9, align 8
  store i32 %3, ptr %10, align 4
  store i32 %4, ptr %11, align 4
  store ptr %5, ptr %12, align 8
  call void @llvm.lifetime.start.p0(i64 1, ptr %13) #8
  call void @llvm.lifetime.start.p0(i64 4, ptr %14) #8
  call void @llvm.lifetime.start.p0(i64 8, ptr %15) #8
  %16 = load i32, ptr %10, align 4
  store i32 %16, ptr %14, align 4
  %17 = load ptr, ptr %9, align 8
  %18 = load i32, ptr @hf_ansi_a_reserved_bits_8_f0, align 4
  %19 = load ptr, ptr %7, align 8
  %20 = load i32, ptr %14, align 4
  %21 = call ptr @proto_tree_add_item(ptr noundef %17, i32 noundef %18, ptr noundef %19, i32 noundef %20, i32 noundef 1, i32 noundef 0)
  %22 = load ptr, ptr %7, align 8
  %23 = load i32, ptr %14, align 4
  %24 = call zeroext i8 @tvb_get_uint8(ptr noundef %22, i32 noundef %23)
  store i8 %24, ptr %13, align 1
  %25 = load i8, ptr %13, align 1
  %26 = zext i8 %25 to i32
  %27 = and i32 %26, 15
  %28 = call ptr @val_to_str_const(i32 noundef %27, ptr noundef @ansi_a_auth_chlg_param_rand_num_type_vals, ptr noundef @.str.275)
  store ptr %28, ptr %15, align 8
  %29 = load ptr, ptr %9, align 8
  %30 = load i32, ptr @hf_ansi_a_auth_chlg_param_rand_num_type, align 4
  %31 = load ptr, ptr %7, align 8
  %32 = load i32, ptr %14, align 4
  %33 = load i8, ptr %13, align 1
  %34 = zext i8 %33 to i32
  %35 = load ptr, ptr %15, align 8
  %36 = load i8, ptr %13, align 1
  %37 = zext i8 %36 to i32
  %38 = and i32 %37, 15
  %39 = call ptr (ptr, i32, ptr, i32, i32, i32, ptr, ...) @proto_tree_add_uint_format_value(ptr noundef %29, i32 noundef %30, ptr noundef %31, i32 noundef %32, i32 noundef 1, i32 noundef %34, ptr noundef @.str.1008, ptr noundef %35, i32 noundef %38)
  %40 = load ptr, ptr %12, align 8
  %41 = getelementptr inbounds nuw %struct.ansi_a_shared_data_t, ptr %40, i32 0, i32 2
  %42 = load ptr, ptr %41, align 8
  %43 = load ptr, ptr %15, align 8
  call void (ptr, ptr, ...) @proto_item_append_text(ptr noundef %42, ptr noundef @.str.1006, ptr noundef %43)
  %44 = load i32, ptr %14, align 4
  %45 = add i32 %44, 1
  store i32 %45, ptr %14, align 4
  %46 = load ptr, ptr %9, align 8
  %47 = load i32, ptr @hf_ansi_a_auth_chlg_param_rand, align 4
  %48 = load ptr, ptr %7, align 8
  %49 = load i32, ptr %14, align 4
  %50 = load i32, ptr %11, align 4
  %51 = load i32, ptr %14, align 4
  %52 = load i32, ptr %10, align 4
  %53 = sub i32 %51, %52
  %54 = sub i32 %50, %53
  %55 = call ptr @proto_tree_add_item(ptr noundef %46, i32 noundef %47, ptr noundef %48, i32 noundef %49, i32 noundef %54, i32 noundef 0)
  %56 = load i32, ptr %11, align 4
  %57 = load i32, ptr %14, align 4
  %58 = load i32, ptr %10, align 4
  %59 = sub i32 %57, %58
  %60 = sub i32 %56, %59
  %61 = load i32, ptr %14, align 4
  %62 = add i32 %61, %60
  store i32 %62, ptr %14, align 4
  %63 = load i32, ptr %11, align 4
  %64 = load i32, ptr %14, align 4
  %65 = load i32, ptr %10, align 4
  %66 = sub i32 %64, %65
  %67 = icmp ugt i32 %63, %66
  br i1 %67, label %68, label %86

68:                                               ; preds = %6
  %69 = load ptr, ptr %9, align 8
  %70 = load ptr, ptr %8, align 8
  %71 = load ptr, ptr %7, align 8
  %72 = load i32, ptr %14, align 4
  %73 = load i32, ptr %11, align 4
  %74 = load i32, ptr %14, align 4
  %75 = load i32, ptr %10, align 4
  %76 = sub i32 %74, %75
  %77 = sub i32 %73, %76
  %78 = call ptr @proto_tree_add_expert(ptr noundef %69, ptr noundef %70, ptr noundef @ei_ansi_a_extraneous_data, ptr noundef %71, i32 noundef %72, i32 noundef %77)
  %79 = load i32, ptr %11, align 4
  %80 = load i32, ptr %14, align 4
  %81 = load i32, ptr %10, align 4
  %82 = sub i32 %80, %81
  %83 = sub i32 %79, %82
  %84 = load i32, ptr %14, align 4
  %85 = add i32 %84, %83
  store i32 %85, ptr %14, align 4
  br label %86

86:                                               ; preds = %68, %6
  %87 = load i32, ptr %14, align 4
  %88 = load i32, ptr %10, align 4
  %89 = sub i32 %87, %88
  %90 = trunc i32 %89 to i8
  call void @llvm.lifetime.end.p0(i64 8, ptr %15) #8
  call void @llvm.lifetime.end.p0(i64 4, ptr %14) #8
  call void @llvm.lifetime.end.p0(i64 1, ptr %13) #8
  ret i8 %90
}