; Function Attrs: null_pointer_is_valid sspstrong uwtable
define internal noundef zeroext i8 @elem_auth_chlg_param(ptr noundef %0, ptr readnone captures(none) %1, ptr noundef %2, i32 noundef %3, i32 noundef %4, ptr noundef readonly captures(none) %5) #1 {
  %7 = load i32, ptr @hf_ansi_a_reserved_bits_8_f0, align 4
  %8 = tail call ptr @proto_tree_add_item(ptr noundef %2, i32 noundef %7, ptr noundef %0, i32 noundef %3, i32 noundef 1, i32 noundef 0)
  %9 = tail call zeroext i8 @tvb_get_uint8(ptr noundef %0, i32 noundef %3)
  %10 = zext i8 %9 to i32
  %11 = and i32 %10, 15
  %12 = tail call ptr @val_to_str_const(i32 noundef %11, ptr noundef nonnull @ansi_a_auth_chlg_param_rand_num_type_vals, ptr noundef nonnull @.str.275)
  %13 = load i32, ptr @hf_ansi_a_auth_chlg_param_rand_num_type, align 4
  %14 = tail call ptr (ptr, i32, ptr, i32, i32, i32, ptr, ...) @proto_tree_add_uint_format_value(ptr noundef %2, i32 noundef %13, ptr noundef %0, i32 noundef %3, i32 noundef 1, i32 noundef %10, ptr noundef nonnull @.str.1008, ptr noundef %12, i32 noundef %11)
  %15 = getelementptr inbounds nuw i8, ptr %5, i64 16
  %16 = load ptr, ptr %15, align 8
  tail call void (ptr, ptr, ...) @proto_item_append_text(ptr noundef %16, ptr noundef nonnull @.str.1006, ptr noundef %12)
  %17 = add i32 %3, 1
  %18 = load i32, ptr @hf_ansi_a_auth_chlg_param_rand, align 4
  %19 = add i32 %4, -1
  %20 = tail call ptr @proto_tree_add_item(ptr noundef %2, i32 noundef %18, ptr noundef %0, i32 noundef %17, i32 noundef %19, i32 noundef 0)
  %21 = trunc i32 %4 to i8
  ret i8 %21
}